target datalayout = "e-m:e-p270:32:32-p271:32:32-p272:64:64-i64:64-i128:128-f80:128-n8:16:32:64-S128"
target triple = "x86_64-pc-linux-gnu"

%class.G1HeapRegionSetBase = type <{ ptr, ptr, i32, [4 x i8], ptr, i8, [7 x i8] }>

@g_assert_poison = external global ptr, align 8
@.str = private unnamed_addr constant [44 x i8] c"src/hotspot/share/gc/g1/g1HeapRegionSet.cpp\00", align 1
@.str.4 = private unnamed_addr constant [84 x i8] c"guarantee((( is_empty() && length() == 0) || (!is_empty() && length() > 0))) failed\00", align 1
@.str.5 = private unnamed_addr constant [15 x i8] c"[%s] %s ln: %u\00", align 1
@.str.6 = private unnamed_addr constant [10 x i8] c"invariant\00", align 1

; Function Attrs: mustprogress nounwind uwtable
define linkonce_odr hidden noundef ptr @_ZN19G1HeapRegionSetBase4nameEv(ptr noundef nonnull align 8 dereferenceable(33) %0) #1 comdat align 2 {
  %2 = alloca ptr, align 8
  store ptr %0, ptr %2, align 8
  %3 = load ptr, ptr %2, align 8
  %4 = getelementptr inbounds %class.G1HeapRegionSetBase, ptr %3, i32 0, i32 4
  %5 = load ptr, ptr %4, align 8
  ret ptr %5
}

; Function Attrs: mustprogress nounwind uwtable
define linkonce_odr hidden noundef i32 @_ZNK19G1HeapRegionSetBase6lengthEv(ptr noundef nonnull align 8 dereferenceable(33) %0) #1 comdat align 2 {
  %2 = alloca ptr, align 8
  store ptr %0, ptr %2, align 8
  %3 = load ptr, ptr %2, align 8
  %4 = getelementptr inbounds %class.G1HeapRegionSetBase, ptr %3, i32 0, i32 2
  %5 = load i32, ptr %4, align 8
  ret i32 %5
}

; Function Attrs: mustprogress nounwind uwtable
define linkonce_odr hidden noundef zeroext i1 @_ZN19G1HeapRegionSetBase8is_emptyEv(ptr noundef nonnull align 8 dereferenceable(33) %0) #1 comdat align 2 {
  %2 = alloca ptr, align 8
  store ptr %0, ptr %2, align 8
  %3 = load ptr, ptr %2, align 8
  %4 = getelementptr inbounds %class.G1HeapRegionSetBase, ptr %3, i32 0, i32 2
  %5 = load i32, ptr %4, align 8
  %6 = icmp eq i32 %5, 0
  ret i1 %6
}

; Function Attrs: mustprogress nounwind uwtable
define hidden void @_ZN19G1HeapRegionSetBase6verifyEv(ptr noundef nonnull align 8 dereferenceable(33) %0) unnamed_addr #1 align 2 {
  %2 = alloca ptr, align 8
  store ptr %0, ptr %2, align 8
  %3 = load ptr, ptr %2, align 8
  call void @_ZN19G1HeapRegionSetBase15check_mt_safetyEv(ptr noundef nonnull align 8 dereferenceable(33) %3)
  br label %4

4:                                                ; preds = %1
  br label %5

5:                                                ; preds = %4
  %6 = call noundef zeroext i1 @_ZN19G1HeapRegionSetBase8is_emptyEv(ptr noundef nonnull align 8 dereferenceable(33) %3)
  br i1 %6, label %7, label %10

7:                                                ; preds = %5
  %8 = call noundef i32 @_ZNK19G1HeapRegionSetBase6lengthEv(ptr noundef nonnull align 8 dereferenceable(33) %3)
  %9 = icmp eq i32 %8, 0
  br i1 %9, label %19, label %10

10:                                               ; preds = %7, %5
  %11 = call noundef zeroext i1 @_ZN19G1HeapRegionSetBase8is_emptyEv(ptr noundef nonnull align 8 dereferenceable(33) %3)
  br i1 %11, label %15, label %12

12:                                               ; preds = %10
  %13 = call noundef i32 @_ZNK19G1HeapRegionSetBase6lengthEv(ptr noundef nonnull align 8 dereferenceable(33) %3)
  %14 = icmp ugt i32 %13, 0
  br i1 %14, label %19, label %15

15:                                               ; preds = %12, %10
  %16 = load ptr, ptr @g_assert_poison, align 8
  store i8 88, ptr %16, align 1
  %17 = call noundef ptr @_ZN19G1HeapRegionSetBase4nameEv(ptr noundef nonnull align 8 dereferenceable(33) %3)
  %18 = call noundef i32 @_ZNK19G1HeapRegionSetBase6lengthEv(ptr noundef nonnull align 8 dereferenceable(33) %3)
  call void (ptr, i32, ptr, ptr, ...) @_Z15report_vm_errorPKciS0_S0_z(ptr noundef @.str, i32 noundef 53, ptr noundef @.str.4, ptr noundef @.str.5, ptr noundef %17, ptr noundef @.str.6, i32 noundef %18) #8
  unreachable

19:                                               ; preds = %12, %7
  br label %20

20:                                               ; preds = %19
  br label %21

21:                                               ; preds = %20
  ret void
}

; Function Attrs: mustprogress nounwind uwtable
define linkonce_odr hidden void @_ZN19G1HeapRegionSetBase15check_mt_safetyEv(ptr noundef nonnull align 8 dereferenceable(33) %0) #1 comdat align 2 {
  %2 = alloca ptr, align 8
  store ptr %0, ptr %2, align 8
  %3 = load ptr, ptr %2, align 8
  %4 = getelementptr inbounds %class.G1HeapRegionSetBase, ptr %3, i32 0, i32 1
  %5 = load ptr, ptr %4, align 8
  %6 = icmp ne ptr %5, null
  br i1 %6, label %7, label %13

7:                                                ; preds = %1
  %8 = getelementptr inbounds %class.G1HeapRegionSetBase, ptr %3, i32 0, i32 1
  %9 = load ptr, ptr %8, align 8
  %10 = load ptr, ptr %9, align 8
  %11 = getelementptr inbounds ptr, ptr %10, i64 0
  %12 = load ptr, ptr %11, align 8
  call void %12(ptr noundef nonnull align 8 dereferenceable(8) %9)
  br label %13

13:                                               ; preds = %7, %1
  ret void
}

; Function Attrs: mustprogress nounwind uwtable
define hidden void @_ZN19G1HeapRegionSetBase12verify_startEv(ptr noundef nonnull align 8 dereferenceable(33) %0) #1 align 2 {
  %2 = alloca ptr, align 8
  store ptr %0, ptr %2, align 8
  %3 = load ptr, ptr %2, align 8
  call void @_ZN19G1HeapRegionSetBase15check_mt_safetyEv(ptr noundef nonnull align 8 dereferenceable(33) %3)
  br label %4

4:                                                ; preds = %1
  br label %5

5:                                                ; preds = %4
  call void @_ZN19G1HeapRegionSetBase6verifyEv(ptr noundef nonnull align 8 dereferenceable(33) %3)
  %6 = getelementptr inbounds %class.G1HeapRegionSetBase, ptr %3, i32 0, i32 5
  store i8 1, ptr %6, align 8
  ret void
}