; Function Attrs: mustprogress nounwind uwtable
define hidden void @_ZN19G1HeapRegionSetBase12verify_startEv(ptr nocapture noundef nonnull align 8 dereferenceable(33) %0) local_unnamed_addr #0 align 2 {
  %2 = getelementptr inbounds i8, ptr %0, i64 8
  %3 = load ptr, ptr %2, align 8
  %.not.i = icmp eq ptr %3, null
  br i1 %.not.i, label %_ZN19G1HeapRegionSetBase6verifyEv.exit, label %_ZN19G1HeapRegionSetBase15check_mt_safetyEv.exit

_ZN19G1HeapRegionSetBase15check_mt_safetyEv.exit: ; preds = %1
  %4 = load ptr, ptr %3, align 8
  %5 = load ptr, ptr %4, align 8
  tail call void %5(ptr noundef nonnull align 8 dereferenceable(8) %3) #12
  %.pr = load ptr, ptr %2, align 8
  %.not.i.i = icmp eq ptr %.pr, null
  br i1 %.not.i.i, label %_ZN19G1HeapRegionSetBase6verifyEv.exit, label %6

6:                                                ; preds = %_ZN19G1HeapRegionSetBase15check_mt_safetyEv.exit
  %7 = load ptr, ptr %.pr, align 8
  %8 = load ptr, ptr %7, align 8
  tail call void %8(ptr noundef nonnull align 8 dereferenceable(8) %.pr) #12
  br label %_ZN19G1HeapRegionSetBase6verifyEv.exit

_ZN19G1HeapRegionSetBase6verifyEv.exit:           ; preds = %1, %_ZN19G1HeapRegionSetBase15check_mt_safetyEv.exit, %6
  %9 = getelementptr inbounds i8, ptr %0, i64 32
  store i8 1, ptr %9, align 8
  ret void
}